target datalayout = "e-m:e-p270:32:32-p271:32:32-p272:64:64-i64:64-i128:128-f80:128-n8:16:32:64-S128"
target triple = "x86_64-pc-linux-gnu"

%struct.AuthenticatedSafe = type { ptr, ptr, i32, i32, i32 }
%struct.ContentInfo = type { ptr, ptr, i32, i32, i32 }

; Function Attrs: nounwind uwtable
define internal void @freeSafe(ptr noundef %0, ptr noundef %1) #0 {
  %3 = alloca ptr, align 8
  %4 = alloca ptr, align 8
  %5 = alloca i32, align 4
  %6 = alloca i32, align 4
  %7 = alloca ptr, align 8
  %8 = alloca ptr, align 8
  %9 = alloca ptr, align 8
  %10 = alloca ptr, align 8
  store ptr %0, ptr %3, align 8, !tbaa !20
  store ptr %1, ptr %4, align 8, !tbaa !3
  call void @llvm.lifetime.start.p0(i64 4, ptr %5) #7
  %11 = load ptr, ptr %3, align 8, !tbaa !20
  %12 = icmp eq ptr %11, null
  br i1 %12, label %13, label %14

13:                                               ; preds = %2
  store i32 1, ptr %6, align 4
  br label %63

14:                                               ; preds = %2
  %15 = load ptr, ptr %3, align 8, !tbaa !20
  %16 = getelementptr inbounds nuw %struct.AuthenticatedSafe, ptr %15, i32 0, i32 3
  %17 = load i32, ptr %16, align 4, !tbaa !21
  store i32 %17, ptr %5, align 4, !tbaa !24
  br label %18

18:                                               ; preds = %39, %14
  %19 = load i32, ptr %5, align 4, !tbaa !24
  %20 = icmp sgt i32 %19, 0
  br i1 %20, label %21, label %42

21:                                               ; preds = %18
  call void @llvm.lifetime.start.p0(i64 8, ptr %7) #7
  %22 = load ptr, ptr %3, align 8, !tbaa !20
  %23 = getelementptr inbounds nuw %struct.AuthenticatedSafe, ptr %22, i32 0, i32 0
  %24 = load ptr, ptr %23, align 8, !tbaa !25
  store ptr %24, ptr %7, align 8, !tbaa !26
  %25 = load ptr, ptr %7, align 8, !tbaa !26
  %26 = getelementptr inbounds nuw %struct.ContentInfo, ptr %25, i32 0, i32 1
  %27 = load ptr, ptr %26, align 8, !tbaa !27
  %28 = load ptr, ptr %3, align 8, !tbaa !20
  %29 = getelementptr inbounds nuw %struct.AuthenticatedSafe, ptr %28, i32 0, i32 0
  store ptr %27, ptr %29, align 8, !tbaa !25
  br label %30

30:                                               ; preds = %21
  call void @llvm.lifetime.start.p0(i64 8, ptr %8) #7
  %31 = load ptr, ptr %7, align 8, !tbaa !26
  store ptr %31, ptr %8, align 8, !tbaa !3
  %32 = load ptr, ptr %8, align 8, !tbaa !3
  %33 = icmp ne ptr %32, null
  br i1 %33, label %34, label %36

34:                                               ; preds = %30
  %35 = load ptr, ptr %8, align 8, !tbaa !3
  call void @wolfSSL_Free(ptr noundef %35)
  br label %36

36:                                               ; preds = %34, %30
  call void @llvm.lifetime.end.p0(i64 8, ptr %8) #7
  br label %37

37:                                               ; preds = %36
  br label %38

38:                                               ; preds = %37
  call void @llvm.lifetime.end.p0(i64 8, ptr %7) #7
  br label %39

39:                                               ; preds = %38
  %40 = load i32, ptr %5, align 4, !tbaa !24
  %41 = add nsw i32 %40, -1
  store i32 %41, ptr %5, align 4, !tbaa !24
  br label %18, !llvm.loop !29

42:                                               ; preds = %18
  br label %43

43:                                               ; preds = %42
  call void @llvm.lifetime.start.p0(i64 8, ptr %9) #7
  %44 = load ptr, ptr %3, align 8, !tbaa !20
  %45 = getelementptr inbounds nuw %struct.AuthenticatedSafe, ptr %44, i32 0, i32 1
  %46 = load ptr, ptr %45, align 8, !tbaa !31
  store ptr %46, ptr %9, align 8, !tbaa !3
  %47 = load ptr, ptr %9, align 8, !tbaa !3
  %48 = icmp ne ptr %47, null
  br i1 %48, label %49, label %51

49:                                               ; preds = %43
  %50 = load ptr, ptr %9, align 8, !tbaa !3
  call void @wolfSSL_Free(ptr noundef %50)
  br label %51

51:                                               ; preds = %49, %43
  call void @llvm.lifetime.end.p0(i64 8, ptr %9) #7
  br label %52

52:                                               ; preds = %51
  br label %53

53:                                               ; preds = %52
  br label %54

54:                                               ; preds = %53
  call void @llvm.lifetime.start.p0(i64 8, ptr %10) #7
  %55 = load ptr, ptr %3, align 8, !tbaa !20
  store ptr %55, ptr %10, align 8, !tbaa !3
  %56 = load ptr, ptr %10, align 8, !tbaa !3
  %57 = icmp ne ptr %56, null
  br i1 %57, label %58, label %60

58:                                               ; preds = %54
  %59 = load ptr, ptr %10, align 8, !tbaa !3
  call void @wolfSSL_Free(ptr noundef %59)
  br label %60

60:                                               ; preds = %58, %54
  call void @llvm.lifetime.end.p0(i64 8, ptr %10) #7
  br label %61

61:                                               ; preds = %60
  br label %62

62:                                               ; preds = %61
  store i32 0, ptr %6, align 4
  br label %63

63:                                               ; preds = %62, %13
  call void @llvm.lifetime.end.p0(i64 4, ptr %5) #7
  %64 = load i32, ptr %6, align 4
  switch i32 %64, label %66 [
    i32 0, label %65
    i32 1, label %65
  ]

65:                                               ; preds = %63, %63
  ret void

66:                                               ; preds = %63
  unreachable
}