; Function Attrs: nounwind uwtable
define internal fastcc void @freeSafe(ptr noundef nonnull %0) unnamed_addr #0 {
  %2 = getelementptr inbounds nuw i8, ptr %0, i64 20
  %3 = load i32, ptr %2, align 4, !tbaa !12
  %4 = icmp sgt i32 %3, 0
  br i1 %4, label %.lr.ph, label %._crit_edge

.lr.ph:                                           ; preds = %1, %.lr.ph
  %.01 = phi i32 [ %8, %.lr.ph ], [ %3, %1 ]
  %5 = load ptr, ptr %0, align 8, !tbaa !16
  %6 = getelementptr inbounds nuw i8, ptr %5, i64 8
  %7 = load ptr, ptr %6, align 8, !tbaa !17
  store ptr %7, ptr %0, align 8, !tbaa !16
  tail call void @wolfSSL_Free(ptr noundef nonnull %5) #9
  %8 = add nsw i32 %.01, -1
  %9 = icmp samesign ugt i32 %.01, 1
  br i1 %9, label %.lr.ph, label %._crit_edge, !llvm.loop !19

._crit_edge:                                      ; preds = %.lr.ph, %1
  %10 = getelementptr inbounds nuw i8, ptr %0, i64 8
  %11 = load ptr, ptr %10, align 8, !tbaa !21
  %.not = icmp eq ptr %11, null
  br i1 %.not, label %13, label %12

12:                                               ; preds = %._crit_edge
  tail call void @wolfSSL_Free(ptr noundef nonnull %11) #9
  br label %13

13:                                               ; preds = %._crit_edge, %12
  tail call void @wolfSSL_Free(ptr noundef nonnull %0) #9
  ret void
}